target datalayout = "e-m:e-p270:32:32-p271:32:32-p272:64:64-i64:64-i128:128-f80:128-n8:16:32:64-S128"
target triple = "x86_64-pc-linux-gnu"

%struct.ResFile = type { ptr, ptr, ptr, i32, i32, ptr, i32, i32 }
%struct.SRBRoot = type { ptr, ptr, i32, i32, i8, i8, i8, ptr, ptr, i32, i32, i32, i32, i32, %"class.icu_77::UnicodeString", i32, ptr, i32, i32, i32, ptr }
%"class.icu_77::UnicodeString" = type { %"class.icu_77::Replaceable", %"union.icu_77::UnicodeString::StackBufferOrFields" }
%"class.icu_77::Replaceable" = type { %"class.icu_77::UObject" }
%"class.icu_77::UObject" = type { ptr }
%"union.icu_77::UnicodeString::StackBufferOrFields" = type { %struct.anon.0, [32 x i8] }
%struct.anon.0 = type { i16, i32, i32, ptr }
%struct.KeyMapEntry = type { i32, i32 }

; Function Attrs: mustprogress nounwind uwtable
define internal noundef i32 @_ZL12compareInt32ii(i32 noundef %0, i32 noundef %1) #4 {
  %3 = alloca i32, align 4
  %4 = alloca i32, align 4
  %5 = alloca i32, align 4
  store i32 %0, ptr %4, align 4, !tbaa !23
  store i32 %1, ptr %5, align 4, !tbaa !23
  %6 = load i32, ptr %4, align 4, !tbaa !23
  %7 = load i32, ptr %5, align 4, !tbaa !23
  %8 = icmp slt i32 %6, %7
  br i1 %8, label %9, label %10

9:                                                ; preds = %2
  store i32 -1, ptr %3, align 4
  br label %16

10:                                               ; preds = %2
  %11 = load i32, ptr %4, align 4, !tbaa !23
  %12 = load i32, ptr %5, align 4, !tbaa !23
  %13 = icmp sgt i32 %11, %12
  br i1 %13, label %14, label %15

14:                                               ; preds = %10
  store i32 1, ptr %3, align 4
  br label %16

15:                                               ; preds = %10
  store i32 0, ptr %3, align 4
  br label %16

16:                                               ; preds = %15, %14, %9
  %17 = load i32, ptr %3, align 4
  ret i32 %17
}

; Function Attrs: mustprogress nounwind uwtable
define dso_local noundef ptr @_ZNK7SRBRoot12getKeyStringEi(ptr noundef nonnull align 8 dereferenceable(176) %0, i32 noundef %1) #4 align 2 {
  %3 = alloca ptr, align 8
  %4 = alloca ptr, align 8
  %5 = alloca i32, align 4
  store ptr %0, ptr %4, align 8, !tbaa !39
  store i32 %1, ptr %5, align 4, !tbaa !23
  %6 = load ptr, ptr %4, align 8
  %7 = load i32, ptr %5, align 4, !tbaa !23
  %8 = icmp slt i32 %7, 0
  br i1 %8, label %9, label %18

9:                                                ; preds = %2
  %10 = getelementptr inbounds nuw %struct.SRBRoot, ptr %6, i32 0, i32 16
  %11 = load ptr, ptr %10, align 8, !tbaa !119
  %12 = getelementptr inbounds nuw %struct.ResFile, ptr %11, i32 0, i32 2
  %13 = load ptr, ptr %12, align 8, !tbaa !16
  %14 = load i32, ptr %5, align 4, !tbaa !23
  %15 = and i32 %14, 2147483647
  %16 = sext i32 %15 to i64
  %17 = getelementptr inbounds i8, ptr %13, i64 %16
  store ptr %17, ptr %3, align 8
  br label %24

18:                                               ; preds = %2
  %19 = getelementptr inbounds nuw %struct.SRBRoot, ptr %6, i32 0, i32 7
  %20 = load ptr, ptr %19, align 8, !tbaa !64
  %21 = load i32, ptr %5, align 4, !tbaa !23
  %22 = sext i32 %21 to i64
  %23 = getelementptr inbounds i8, ptr %20, i64 %22
  store ptr %23, ptr %3, align 8
  br label %24

24:                                               ; preds = %18, %9
  %25 = load ptr, ptr %3, align 8
  ret ptr %25
}

; Function Attrs: mustprogress uwtable
define internal noundef i32 @_ZL18compareKeySuffixesPKvS0_S0_(ptr noundef %0, ptr noundef %1, ptr noundef %2) #5 {
  %4 = alloca i32, align 4
  %5 = alloca ptr, align 8
  %6 = alloca ptr, align 8
  %7 = alloca ptr, align 8
  %8 = alloca ptr, align 8
  %9 = alloca i32, align 4
  %10 = alloca i32, align 4
  %11 = alloca ptr, align 8
  %12 = alloca ptr, align 8
  %13 = alloca ptr, align 8
  %14 = alloca ptr, align 8
  %15 = alloca i32, align 4
  %16 = alloca i32, align 4
  store ptr %0, ptr %5, align 8, !tbaa !44
  store ptr %1, ptr %6, align 8, !tbaa !44
  store ptr %2, ptr %7, align 8, !tbaa !44
  call void @llvm.lifetime.start.p0(i64 8, ptr %8) #3
  %17 = load ptr, ptr %5, align 8, !tbaa !44
  store ptr %17, ptr %8, align 8, !tbaa !39
  call void @llvm.lifetime.start.p0(i64 4, ptr %9) #3
  %18 = load ptr, ptr %6, align 8, !tbaa !44
  %19 = getelementptr inbounds nuw %struct.KeyMapEntry, ptr %18, i32 0, i32 0
  %20 = load i32, ptr %19, align 4, !tbaa !120
  store i32 %20, ptr %9, align 4, !tbaa !23
  call void @llvm.lifetime.start.p0(i64 4, ptr %10) #3
  %21 = load ptr, ptr %7, align 8, !tbaa !44
  %22 = getelementptr inbounds nuw %struct.KeyMapEntry, ptr %21, i32 0, i32 0
  %23 = load i32, ptr %22, align 4, !tbaa !120
  store i32 %23, ptr %10, align 4, !tbaa !23
  call void @llvm.lifetime.start.p0(i64 8, ptr %11) #3
  %24 = load ptr, ptr %8, align 8, !tbaa !39
  %25 = load i32, ptr %9, align 4, !tbaa !23
  %26 = call noundef ptr @_ZNK7SRBRoot12getKeyStringEi(ptr noundef nonnull align 8 dereferenceable(176) %24, i32 noundef %25)
  store ptr %26, ptr %11, align 8, !tbaa !41
  call void @llvm.lifetime.start.p0(i64 8, ptr %12) #3
  %27 = load ptr, ptr %11, align 8, !tbaa !41
  store ptr %27, ptr %12, align 8, !tbaa !41
  call void @llvm.lifetime.start.p0(i64 8, ptr %13) #3
  %28 = load ptr, ptr %8, align 8, !tbaa !39
  %29 = load i32, ptr %10, align 4, !tbaa !23
  %30 = call noundef ptr @_ZNK7SRBRoot12getKeyStringEi(ptr noundef nonnull align 8 dereferenceable(176) %28, i32 noundef %29)
  store ptr %30, ptr %13, align 8, !tbaa !41
  call void @llvm.lifetime.start.p0(i64 8, ptr %14) #3
  %31 = load ptr, ptr %13, align 8, !tbaa !41
  store ptr %31, ptr %14, align 8, !tbaa !41
  call void @llvm.lifetime.start.p0(i64 4, ptr %15) #3
  br label %32

32:                                               ; preds = %37, %3
  %33 = load ptr, ptr %12, align 8, !tbaa !41
  %34 = load i8, ptr %33, align 1, !tbaa !22
  %35 = sext i8 %34 to i32
  %36 = icmp ne i32 %35, 0
  br i1 %36, label %37, label %40

37:                                               ; preds = %32
  %38 = load ptr, ptr %12, align 8, !tbaa !41
  %39 = getelementptr inbounds nuw i8, ptr %38, i32 1
  store ptr %39, ptr %12, align 8, !tbaa !41
  br label %32, !llvm.loop !214

40:                                               ; preds = %32
  br label %41

41:                                               ; preds = %46, %40
  %42 = load ptr, ptr %14, align 8, !tbaa !41
  %43 = load i8, ptr %42, align 1, !tbaa !22
  %44 = sext i8 %43 to i32
  %45 = icmp ne i32 %44, 0
  br i1 %45, label %46, label %49

46:                                               ; preds = %41
  %47 = load ptr, ptr %14, align 8, !tbaa !41
  %48 = getelementptr inbounds nuw i8, ptr %47, i32 1
  store ptr %48, ptr %14, align 8, !tbaa !41
  br label %41, !llvm.loop !215

49:                                               ; preds = %41
  br label %50

50:                                               ; preds = %74, %49
  %51 = load ptr, ptr %11, align 8, !tbaa !41
  %52 = load ptr, ptr %12, align 8, !tbaa !41
  %53 = icmp ult ptr %51, %52
  br i1 %53, label %54, label %58

54:                                               ; preds = %50
  %55 = load ptr, ptr %13, align 8, !tbaa !41
  %56 = load ptr, ptr %14, align 8, !tbaa !41
  %57 = icmp ult ptr %55, %56
  br label %58

58:                                               ; preds = %54, %50
  %59 = phi i1 [ false, %50 ], [ %57, %54 ]
  br i1 %59, label %60, label %75

60:                                               ; preds = %58
  %61 = load ptr, ptr %12, align 8, !tbaa !41
  %62 = getelementptr inbounds i8, ptr %61, i32 -1
  store ptr %62, ptr %12, align 8, !tbaa !41
  %63 = load i8, ptr %62, align 1, !tbaa !22
  %64 = zext i8 %63 to i32
  %65 = load ptr, ptr %14, align 8, !tbaa !41
  %66 = getelementptr inbounds i8, ptr %65, i32 -1
  store ptr %66, ptr %14, align 8, !tbaa !41
  %67 = load i8, ptr %66, align 1, !tbaa !22
  %68 = zext i8 %67 to i32
  %69 = sub nsw i32 %64, %68
  store i32 %69, ptr %15, align 4, !tbaa !23
  %70 = load i32, ptr %15, align 4, !tbaa !23
  %71 = icmp ne i32 %70, 0
  br i1 %71, label %72, label %74

72:                                               ; preds = %60
  %73 = load i32, ptr %15, align 4, !tbaa !23
  store i32 %73, ptr %4, align 4
  store i32 1, ptr %16, align 4
  br label %97

74:                                               ; preds = %60
  br label %50, !llvm.loop !216

75:                                               ; preds = %58
  %76 = load ptr, ptr %14, align 8, !tbaa !41
  %77 = load ptr, ptr %13, align 8, !tbaa !41
  %78 = ptrtoint ptr %76 to i64
  %79 = ptrtoint ptr %77 to i64
  %80 = sub i64 %78, %79
  %81 = trunc i64 %80 to i32
  %82 = load ptr, ptr %12, align 8, !tbaa !41
  %83 = load ptr, ptr %11, align 8, !tbaa !41
  %84 = ptrtoint ptr %82 to i64
  %85 = ptrtoint ptr %83 to i64
  %86 = sub i64 %84, %85
  %87 = trunc i64 %86 to i32
  %88 = sub nsw i32 %81, %87
  store i32 %88, ptr %15, align 4, !tbaa !23
  %89 = load i32, ptr %15, align 4, !tbaa !23
  %90 = icmp ne i32 %89, 0
  br i1 %90, label %91, label %93

91:                                               ; preds = %75
  %92 = load i32, ptr %15, align 4, !tbaa !23
  store i32 %92, ptr %4, align 4
  store i32 1, ptr %16, align 4
  br label %97

93:                                               ; preds = %75
  %94 = load i32, ptr %9, align 4, !tbaa !23
  %95 = load i32, ptr %10, align 4, !tbaa !23
  %96 = call noundef i32 @_ZL12compareInt32ii(i32 noundef %94, i32 noundef %95)
  store i32 %96, ptr %4, align 4
  store i32 1, ptr %16, align 4
  br label %97

97:                                               ; preds = %93, %91, %72
  call void @llvm.lifetime.end.p0(i64 4, ptr %15) #3
  call void @llvm.lifetime.end.p0(i64 8, ptr %14) #3
  call void @llvm.lifetime.end.p0(i64 8, ptr %13) #3
  call void @llvm.lifetime.end.p0(i64 8, ptr %12) #3
  call void @llvm.lifetime.end.p0(i64 8, ptr %11) #3
  call void @llvm.lifetime.end.p0(i64 4, ptr %10) #3
  call void @llvm.lifetime.end.p0(i64 4, ptr %9) #3
  call void @llvm.lifetime.end.p0(i64 8, ptr %8) #3
  %98 = load i32, ptr %4, align 4
  ret i32 %98
}