; Function Attrs: mustprogress nofree norecurse nosync nounwind willreturn memory(read, inaccessiblemem: none) uwtable
define internal noundef i32 @_ZL18compareKeySuffixesPKvS0_S0_(ptr noundef readonly captures(none) %0, ptr noundef readonly captures(none) %1, ptr noundef readonly captures(none) %2) #19 {
  %4 = load i32, ptr %1, align 4, !tbaa !82
  %5 = load i32, ptr %2, align 4, !tbaa !82
  %6 = icmp slt i32 %4, 0
  br i1 %6, label %7, label %12

7:                                                ; preds = %3
  %8 = getelementptr inbounds nuw i8, ptr %0, i64 144
  %9 = load ptr, ptr %8, align 8, !tbaa !78
  %10 = getelementptr inbounds nuw i8, ptr %9, i64 16
  %11 = and i32 %4, 2147483647
  br label %_ZNK7SRBRoot12getKeyStringEi.exit

12:                                               ; preds = %3
  %13 = getelementptr inbounds nuw i8, ptr %0, i64 32
  br label %_ZNK7SRBRoot12getKeyStringEi.exit

_ZNK7SRBRoot12getKeyStringEi.exit:                ; preds = %7, %12
  %.sink6.i = phi i32 [ %4, %12 ], [ %11, %7 ]
  %.sink.in.i = phi ptr [ %13, %12 ], [ %10, %7 ]
  %.sink.i = load ptr, ptr %.sink.in.i, align 8, !tbaa !141
  %14 = zext nneg i32 %.sink6.i to i64
  %15 = getelementptr inbounds nuw i8, ptr %.sink.i, i64 %14
  %16 = icmp slt i32 %5, 0
  br i1 %16, label %17, label %22

17:                                               ; preds = %_ZNK7SRBRoot12getKeyStringEi.exit
  %18 = getelementptr inbounds nuw i8, ptr %0, i64 144
  %19 = load ptr, ptr %18, align 8, !tbaa !78
  %20 = getelementptr inbounds nuw i8, ptr %19, i64 16
  %21 = and i32 %5, 2147483647
  br label %_ZNK7SRBRoot12getKeyStringEi.exit41

22:                                               ; preds = %_ZNK7SRBRoot12getKeyStringEi.exit
  %23 = getelementptr inbounds nuw i8, ptr %0, i64 32
  br label %_ZNK7SRBRoot12getKeyStringEi.exit41

_ZNK7SRBRoot12getKeyStringEi.exit41:              ; preds = %17, %22
  %.sink6.i38 = phi i32 [ %5, %22 ], [ %21, %17 ]
  %.sink.in.i39 = phi ptr [ %23, %22 ], [ %20, %17 ]
  %.sink.i40 = load ptr, ptr %.sink.in.i39, align 8, !tbaa !141
  %24 = zext nneg i32 %.sink6.i38 to i64
  br label %25

25:                                               ; preds = %25, %_ZNK7SRBRoot12getKeyStringEi.exit41
  %.030 = phi ptr [ %15, %_ZNK7SRBRoot12getKeyStringEi.exit41 ], [ %27, %25 ]
  %26 = load i8, ptr %.030, align 1, !tbaa !4
  %.not = icmp eq i8 %26, 0
  %27 = getelementptr inbounds nuw i8, ptr %.030, i64 1
  br i1 %.not, label %.preheader42, label %25, !llvm.loop !161

.preheader42:                                     ; preds = %25
  %28 = getelementptr inbounds nuw i8, ptr %.sink.i40, i64 %24
  br label %29

29:                                               ; preds = %29, %.preheader42
  %.0 = phi ptr [ %31, %29 ], [ %28, %.preheader42 ]
  %30 = load i8, ptr %.0, align 1, !tbaa !4
  %.not34 = icmp eq i8 %30, 0
  %31 = getelementptr inbounds nuw i8, ptr %.0, i64 1
  br i1 %.not34, label %.preheader, label %29, !llvm.loop !162

.preheader:                                       ; preds = %29, %35
  %.131 = phi ptr [ %36, %35 ], [ %.030, %29 ]
  %.1 = phi ptr [ %39, %35 ], [ %.0, %29 ]
  %32 = icmp ult ptr %15, %.131
  %33 = icmp ult ptr %28, %.1
  %34 = and i1 %32, %33
  br i1 %34, label %35, label %43

35:                                               ; preds = %.preheader
  %36 = getelementptr inbounds i8, ptr %.131, i64 -1
  %37 = load i8, ptr %36, align 1, !tbaa !4
  %38 = zext i8 %37 to i32
  %39 = getelementptr inbounds i8, ptr %.1, i64 -1
  %40 = load i8, ptr %39, align 1, !tbaa !4
  %41 = zext i8 %40 to i32
  %42 = sub nsw i32 %38, %41
  %.not37 = icmp eq i32 %42, 0
  br i1 %.not37, label %.preheader, label %.loopexit, !llvm.loop !163

43:                                               ; preds = %.preheader
  %44 = ptrtoint ptr %.1 to i64
  %45 = ptrtoint ptr %28 to i64
  %46 = sub i64 %44, %45
  %47 = trunc i64 %46 to i32
  %48 = ptrtoint ptr %.131 to i64
  %49 = ptrtoint ptr %15 to i64
  %.neg = sub i64 %49, %48
  %.neg35 = trunc i64 %.neg to i32
  %50 = add i32 %47, %.neg35
  %.not36 = icmp eq i32 %50, 0
  br i1 %.not36, label %51, label %.loopexit

51:                                               ; preds = %43
  %.0.i = tail call noundef range(i32 -1, 2) i32 @llvm.scmp.i32.i32(i32 %4, i32 %5)
  br label %.loopexit

.loopexit:                                        ; preds = %35, %43, %51
  %.029 = phi i32 [ %.0.i, %51 ], [ %50, %43 ], [ %42, %35 ]
  ret i32 %.029
}